; ModuleID = '15/71.c'
source_filename = "15/71.c"
target datalayout = "e-m:e-p270:32:32-p271:32:32-p272:64:64-i64:64-f80:128-n8:16:32:64-S128"
target triple = "x86_64-pc-linux-gnu"

@.str = private unnamed_addr constant [3 x i8] c"%d\00", align 1
@.str.1 = private unnamed_addr constant [4 x i8] c"%d\0A\00", align 1

; Function Attrs: noinline nounwind uwtable
define dso_local void @main() #0 {
  %1 = alloca i32, align 4
  %2 = alloca i32, align 4
  %3 = alloca i32, align 4
  %4 = alloca i32, align 4
  %5 = alloca i32, align 4
  %6 = alloca i32, align 4
  %7 = alloca i32, align 4
  %8 = alloca i32, align 4
  store i32 0, i32* %2, align 4
  store i32 0, i32* %3, align 4
  store i32 1000, i32* %6, align 4
  store i32 1000, i32* %7, align 4
  %9 = call i32 (i8*, ...) @__isoc99_scanf(i8* getelementptr inbounds ([3 x i8], [3 x i8]* @.str, i64 0, i64 0), i32* %1)
  store i32 0, i32* %4, align 4
  br label %10

10:                                               ; preds = %53, %0
  %11 = load i32, i32* %4, align 4
  %12 = load i32, i32* %1, align 4
  %13 = icmp slt i32 %11, %12
  br i1 %13, label %14, label %56

14:                                               ; preds = %10
  store i32 0, i32* %5, align 4
  br label %15

15:                                               ; preds = %49, %14
  %16 = load i32, i32* %5, align 4
  %17 = load i32, i32* %1, align 4
  %18 = icmp slt i32 %16, %17
  br i1 %18, label %19, label %52

19:                                               ; preds = %15
  %20 = call i32 (i8*, ...) @__isoc99_scanf(i8* getelementptr inbounds ([3 x i8], [3 x i8]* @.str, i64 0, i64 0), i32* %8)
  %21 = load i32, i32* %8, align 4
  %22 = icmp eq i32 %21, 0
  br i1 %22, label %23, label %48

23:                                               ; preds = %19
  %24 = load i32, i32* %2, align 4
  %25 = load i32, i32* %4, align 4
  %26 = icmp slt i32 %24, %25
  br i1 %26, label %27, label %29

27:                                               ; preds = %23
  %28 = load i32, i32* %4, align 4
  store i32 %28, i32* %2, align 4
  br label %29

29:                                               ; preds = %27, %23
  %30 = load i32, i32* %3, align 4
  %31 = load i32, i32* %5, align 4
  %32 = icmp slt i32 %30, %31
  br i1 %32, label %33, label %35

33:                                               ; preds = %29
  %34 = load i32, i32* %5, align 4
  store i32 %34, i32* %3, align 4
  br label %35

35:                                               ; preds = %33, %29
  %36 = load i32, i32* %6, align 4
  %37 = load i32, i32* %4, align 4
  %38 = icmp sgt i32 %36, %37
  br i1 %38, label %39, label %41

39:                                               ; preds = %35
  %40 = load i32, i32* %4, align 4
  store i32 %40, i32* %6, align 4
  br label %41

41:                                               ; preds = %39, %35
  %42 = load i32, i32* %7, align 4
  %43 = load i32, i32* %5, align 4
  %44 = icmp sgt i32 %42, %43
  br i1 %44, label %45, label %47

45:                                               ; preds = %41
  %46 = load i32, i32* %5, align 4
  store i32 %46, i32* %7, align 4
  br label %47

47:                                               ; preds = %45, %41
  br label %48

48:                                               ; preds = %47, %19
  br label %49

49:                                               ; preds = %48
  %50 = load i32, i32* %5, align 4
  %51 = add nsw i32 %50, 1
  store i32 %51, i32* %5, align 4
  br label %15

52:                                               ; preds = %15
  br label %53

53:                                               ; preds = %52
  %54 = load i32, i32* %4, align 4
  %55 = add nsw i32 %54, 1
  store i32 %55, i32* %4, align 4
  br label %10

56:                                               ; preds = %10
  %57 = load i32, i32* %2, align 4
  %58 = load i32, i32* %6, align 4
  %59 = sub nsw i32 %57, %58
  %60 = sub nsw i32 %59, 1
  %61 = load i32, i32* %3, align 4
  %62 = load i32, i32* %7, align 4
  %63 = sub nsw i32 %61, %62
  %64 = sub nsw i32 %63, 1
  %65 = mul nsw i32 %60, %64
  %66 = call i32 (i8*, ...) @printf(i8* getelementptr inbounds ([4 x i8], [4 x i8]* @.str.1, i64 0, i64 0), i32 %65)
  ret void
}

declare dso_local i32 @__isoc99_scanf(i8*, ...) #1

declare dso_local i32 @printf(i8*, ...) #1


!llvm.module.flags = !{!0}
!llvm.ident = !{!1}

!0 = !{i32 1, !"wchar_size", i32 4}
!1 = !{!"clang version 10.0.0-4ubuntu1 "}
